target datalayout = "e-m:e-p270:32:32-p271:32:32-p272:64:64-i64:64-i128:128-f80:128-n8:16:32:64-S128"
target triple = "x86_64-pc-linux-gnu"

%struct.strvec = type { ptr, i64, i64 }
%struct.child_process = type { %struct.strvec, %struct.strvec, i32, i32, i64, ptr, ptr, i32, i32, i32, ptr, i16, ptr }
%struct.__va_list_tag = type { i32, i32, ptr, ptr }

; Function Attrs: nounwind uwtable
define internal i32 @run_git(ptr noundef %0, ...) #0 {
  %2 = alloca ptr, align 8
  %3 = alloca %struct.child_process, align 8
  %4 = alloca [1 x %struct.__va_list_tag], align 16
  %5 = alloca ptr, align 8
  store ptr %0, ptr %2, align 8, !tbaa !4
  call void @llvm.lifetime.start.p0(i64 120, ptr %3) #12
  call void @llvm.memcpy.p0.p0.i64(ptr align 8 %3, ptr align 8 @__const.run_git.cmd, i64 120, i1 false)
  call void @llvm.lifetime.start.p0(i64 24, ptr %4) #12
  call void @llvm.lifetime.start.p0(i64 8, ptr %5) #12
  %6 = getelementptr inbounds [1 x %struct.__va_list_tag], ptr %4, i64 0, i64 0
  call void @llvm.va_start.p0(ptr %6)
  %7 = getelementptr inbounds nuw %struct.child_process, ptr %3, i32 0, i32 0
  %8 = load ptr, ptr %2, align 8, !tbaa !4
  %9 = call ptr @strvec_push(ptr noundef %7, ptr noundef %8)
  br label %10

10:                                               ; preds = %28, %1
  %11 = getelementptr inbounds [1 x %struct.__va_list_tag], ptr %4, i64 0, i64 0
  %12 = getelementptr inbounds nuw %struct.__va_list_tag, ptr %11, i32 0, i32 0
  %13 = load i32, ptr %12, align 16
  %14 = icmp ule i32 %13, 40
  br i1 %14, label %15, label %20

15:                                               ; preds = %10
  %16 = getelementptr inbounds nuw %struct.__va_list_tag, ptr %11, i32 0, i32 3
  %17 = load ptr, ptr %16, align 16
  %18 = getelementptr i8, ptr %17, i32 %13
  %19 = add i32 %13, 8
  store i32 %19, ptr %12, align 16
  br label %24

20:                                               ; preds = %10
  %21 = getelementptr inbounds nuw %struct.__va_list_tag, ptr %11, i32 0, i32 2
  %22 = load ptr, ptr %21, align 8
  %23 = getelementptr i8, ptr %22, i32 8
  store ptr %23, ptr %21, align 8
  br label %24

24:                                               ; preds = %20, %15
  %25 = phi ptr [ %18, %15 ], [ %22, %20 ]
  %26 = load ptr, ptr %25, align 8, !tbaa !4
  store ptr %26, ptr %5, align 8, !tbaa !4
  %27 = icmp ne ptr %26, null
  br i1 %27, label %28, label %32

28:                                               ; preds = %24
  %29 = getelementptr inbounds nuw %struct.child_process, ptr %3, i32 0, i32 0
  %30 = load ptr, ptr %5, align 8, !tbaa !4
  %31 = call ptr @strvec_push(ptr noundef %29, ptr noundef %30)
  br label %10, !llvm.loop !80

32:                                               ; preds = %24
  %33 = getelementptr inbounds [1 x %struct.__va_list_tag], ptr %4, i64 0, i64 0
  call void @llvm.va_end.p0(ptr %33)
  %34 = getelementptr inbounds nuw %struct.child_process, ptr %3, i32 0, i32 11
  %35 = load i16, ptr %34, align 8
  %36 = and i16 %35, -9
  %37 = or i16 %36, 8
  store i16 %37, ptr %34, align 8
  %38 = call i32 @run_command(ptr noundef %3)
  call void @llvm.lifetime.end.p0(i64 8, ptr %5) #12
  call void @llvm.lifetime.end.p0(i64 24, ptr %4) #12
  call void @llvm.lifetime.end.p0(i64 120, ptr %3) #12
  ret i32 %38
}