; Function Attrs: nounwind uwtable
define internal i32 @run_git(ptr noundef %0, ...) unnamed_addr #2 {
  %2 = alloca %struct.child_process, align 8
  %3 = alloca [1 x %struct.__va_list_tag], align 16
  call void @llvm.lifetime.start.p0(i64 120, ptr nonnull %2) #18
  call void @llvm.memcpy.p0.p0.i64(ptr noundef nonnull align 8 dereferenceable(120) %2, ptr noundef nonnull align 8 dereferenceable(120) @__const.remote_default_branch.cp, i64 120, i1 false)
  call void @llvm.lifetime.start.p0(i64 24, ptr nonnull %3) #18
  call void @llvm.va_start.p0(ptr nonnull %3)
  %4 = call ptr @strvec_push(ptr noundef nonnull %2, ptr noundef %0) #18
  %5 = getelementptr inbounds nuw i8, ptr %3, i64 8
  %6 = getelementptr inbounds nuw i8, ptr %3, i64 16
  br label %7

7:                                                ; preds = %21, %1
  %8 = load i32, ptr %3, align 16
  %9 = icmp ult i32 %8, 41
  br i1 %9, label %10, label %15

10:                                               ; preds = %7
  %11 = load ptr, ptr %6, align 16
  %12 = zext nneg i32 %8 to i64
  %13 = getelementptr i8, ptr %11, i64 %12
  %14 = add nuw nsw i32 %8, 8
  store i32 %14, ptr %3, align 16
  br label %18

15:                                               ; preds = %7
  %16 = load ptr, ptr %5, align 8
  %17 = getelementptr i8, ptr %16, i64 8
  store ptr %17, ptr %5, align 8
  br label %18

18:                                               ; preds = %15, %10
  %19 = phi ptr [ %13, %10 ], [ %16, %15 ]
  %20 = load ptr, ptr %19, align 8, !tbaa !4
  %.not = icmp eq ptr %20, null
  br i1 %.not, label %23, label %21

21:                                               ; preds = %18
  %22 = call ptr @strvec_push(ptr noundef nonnull %2, ptr noundef nonnull %20) #18
  br label %7, !llvm.loop !72

23:                                               ; preds = %18
  call void @llvm.va_end.p0(ptr nonnull %3)
  %24 = getelementptr inbounds nuw i8, ptr %2, i64 104
  %25 = load i16, ptr %24, align 8
  %26 = or i16 %25, 8
  store i16 %26, ptr %24, align 8
  %27 = call i32 @run_command(ptr noundef nonnull %2) #18
  call void @llvm.lifetime.end.p0(i64 24, ptr nonnull %3) #18
  call void @llvm.lifetime.end.p0(i64 120, ptr nonnull %2) #18
  ret i32 %27
}